target datalayout = "e-m:e-p270:32:32-p271:32:32-p272:64:64-i64:64-i128:128-f80:128-n8:16:32:64-S128"
target triple = "x86_64-pc-linux-gnu"

%struct.pbl_descriptor_pool_t = type { ptr, ptr, ptr, ptr, ptr, ptr }
%struct._GHashTableIter = type { ptr, ptr, ptr, i32, i32, ptr }

; Function Attrs: null_pointer_is_valid sspstrong uwtable
define hidden void @pbl_foreach_message(ptr noundef %0, ptr noundef %1, ptr noundef %2) #0 {
  %4 = alloca ptr, align 8
  %5 = alloca ptr, align 8
  %6 = alloca ptr, align 8
  %7 = alloca %struct._GHashTableIter, align 8
  %8 = alloca ptr, align 8
  %9 = alloca ptr, align 8
  store ptr %0, ptr %4, align 8
  store ptr %1, ptr %5, align 8
  store ptr %2, ptr %6, align 8
  call void @llvm.lifetime.start.p0(i64 40, ptr %7) #13
  call void @llvm.lifetime.start.p0(i64 8, ptr %8) #13
  call void @llvm.lifetime.start.p0(i64 8, ptr %9) #13
  %10 = load ptr, ptr %4, align 8
  %11 = getelementptr inbounds nuw %struct.pbl_descriptor_pool_t, ptr %10, i32 0, i32 2
  %12 = load ptr, ptr %11, align 8
  call void @g_hash_table_iter_init(ptr noundef %7, ptr noundef %12)
  br label %13

13:                                               ; preds = %16, %3
  %14 = call i32 @g_hash_table_iter_next(ptr noundef %7, ptr noundef %8, ptr noundef %9)
  %15 = icmp ne i32 %14, 0
  br i1 %15, label %16, label %20

16:                                               ; preds = %13
  %17 = load ptr, ptr %9, align 8
  %18 = load ptr, ptr %5, align 8
  %19 = load ptr, ptr %6, align 8
  call void @pbl_traverse_sub_tree(ptr noundef %17, ptr noundef %18, ptr noundef %19)
  br label %13, !llvm.loop !17

20:                                               ; preds = %13
  call void @llvm.lifetime.end.p0(i64 8, ptr %9) #13
  call void @llvm.lifetime.end.p0(i64 8, ptr %8) #13
  call void @llvm.lifetime.end.p0(i64 40, ptr %7) #13
  ret void
}