; Function Attrs: null_pointer_is_valid sspstrong uwtable
define hidden void @pbl_foreach_message(ptr noundef readonly captures(none) %0, ptr noundef readonly captures(none) %1, ptr noundef %2) local_unnamed_addr #0 {
  %4 = alloca %struct._GHashTableIter, align 8
  %5 = alloca ptr, align 8
  %6 = alloca ptr, align 8
  call void @llvm.lifetime.start.p0(i64 40, ptr nonnull %4) #14
  call void @llvm.lifetime.start.p0(i64 8, ptr nonnull %5) #14
  call void @llvm.lifetime.start.p0(i64 8, ptr nonnull %6) #14
  %7 = getelementptr inbounds nuw i8, ptr %0, i64 16
  %8 = load ptr, ptr %7, align 8
  call void @g_hash_table_iter_init(ptr noundef nonnull %4, ptr noundef %8)
  %9 = call i32 @g_hash_table_iter_next(ptr noundef nonnull %4, ptr noundef nonnull %5, ptr noundef nonnull %6)
  %.not3 = icmp eq i32 %9, 0
  br i1 %.not3, label %._crit_edge, label %.lr.ph

.lr.ph:                                           ; preds = %3, %.lr.ph
  %10 = load ptr, ptr %6, align 8
  call fastcc void @pbl_traverse_sub_tree(ptr noundef %10, ptr noundef %1, ptr noundef %2)
  %11 = call i32 @g_hash_table_iter_next(ptr noundef nonnull %4, ptr noundef nonnull %5, ptr noundef nonnull %6)
  %.not = icmp eq i32 %11, 0
  br i1 %.not, label %._crit_edge, label %.lr.ph, !llvm.loop !20

._crit_edge:                                      ; preds = %.lr.ph, %3
  call void @llvm.lifetime.end.p0(i64 8, ptr nonnull %6) #14
  call void @llvm.lifetime.end.p0(i64 8, ptr nonnull %5) #14
  call void @llvm.lifetime.end.p0(i64 40, ptr nonnull %4) #14
  ret void
}